target datalayout = "e-m:e-p270:32:32-p271:32:32-p272:64:64-i64:64-i128:128-f80:128-n8:16:32:64-S128"
target triple = "x86_64-pc-linux-gnu"

%struct.async_ctx_st = type { %struct.async_fibre_st, ptr, i32 }
%struct.async_fibre_st = type { %struct.ucontext_t, [1 x %struct.__jmp_buf_tag], i32 }
%struct.ucontext_t = type { i64, ptr, %struct.stack_t, %struct.mcontext_t, %struct.__sigset_t, %struct._libc_fpstate, [4 x i64] }
%struct.stack_t = type { ptr, i32, i64 }
%struct.mcontext_t = type { [23 x i64], ptr, [8 x i64] }
%struct.__sigset_t = type { [16 x i64] }
%struct._libc_fpstate = type { i16, i16, i16, i16, i64, i64, i32, i32, [8 x %struct._libc_fpxreg], [16 x %struct._libc_xmmreg], [24 x i32] }
%struct._libc_fpxreg = type { [4 x i16], i16, [3 x i16] }
%struct._libc_xmmreg = type { [4 x i32] }
%struct.__jmp_buf_tag = type { [8 x i64], i32, %struct.__sigset_t }

@ctxkey = internal global i32 0, align 4

; Function Attrs: nounwind uwtable
define ptr @async_get_ctx() #0 {
  %1 = call ptr @CRYPTO_THREAD_get_local(ptr noundef @ctxkey)
  ret ptr %1
}

; Function Attrs: nounwind uwtable
define ptr @ASYNC_get_current_job() #0 {
  %1 = alloca ptr, align 8
  %2 = alloca ptr, align 8
  %3 = alloca i32, align 4
  call void @llvm.lifetime.start.p0(i64 8, ptr %2) #8
  %4 = call i32 @OPENSSL_init_crypto(i64 noundef 256, ptr noundef null)
  %5 = icmp ne i32 %4, 0
  br i1 %5, label %7, label %6

6:                                                ; preds = %0
  store ptr null, ptr %1, align 8
  store i32 1, ptr %3, align 4
  br label %16

7:                                                ; preds = %0
  %8 = call ptr @async_get_ctx()
  store ptr %8, ptr %2, align 8, !tbaa !3
  %9 = load ptr, ptr %2, align 8, !tbaa !3
  %10 = icmp eq ptr %9, null
  br i1 %10, label %11, label %12

11:                                               ; preds = %7
  store ptr null, ptr %1, align 8
  store i32 1, ptr %3, align 4
  br label %16

12:                                               ; preds = %7
  %13 = load ptr, ptr %2, align 8, !tbaa !3
  %14 = getelementptr inbounds nuw %struct.async_ctx_st, ptr %13, i32 0, i32 1
  %15 = load ptr, ptr %14, align 8, !tbaa !8
  store ptr %15, ptr %1, align 8
  store i32 1, ptr %3, align 4
  br label %16

16:                                               ; preds = %12, %11, %6
  call void @llvm.lifetime.end.p0(i64 8, ptr %2) #8
  %17 = load ptr, ptr %1, align 8
  ret ptr %17
}