; Function Attrs: nounwind uwtable
define ptr @ASYNC_get_current_job() local_unnamed_addr #0 {
  %1 = tail call i32 @OPENSSL_init_crypto(i64 noundef 256, ptr noundef null) #8
  %.not = icmp eq i32 %1, 0
  br i1 %.not, label %8, label %2

2:                                                ; preds = %0
  %3 = tail call ptr @CRYPTO_THREAD_get_local(ptr noundef nonnull @ctxkey) #8
  %4 = icmp eq ptr %3, null
  br i1 %4, label %8, label %5

5:                                                ; preds = %2
  %6 = getelementptr inbounds nuw i8, ptr %3, i64 1176
  %7 = load ptr, ptr %6, align 8, !tbaa !3
  br label %8

8:                                                ; preds = %2, %0, %5
  %.0 = phi ptr [ %7, %5 ], [ null, %0 ], [ null, %2 ]
  ret ptr %.0
}